target datalayout = "e-m:e-p270:32:32-p271:32:32-p272:64:64-i64:64-i128:128-f80:128-n8:16:32:64-S128"
target triple = "x86_64-pc-linux-gnu"

%struct._value_string_ext = type { ptr, i32, i32, ptr, ptr }
%struct.expert_field = type { i32, i32 }

@hf_hdr_name_value = internal global i32 0, align 4
@vals_content_types_ext = internal global %struct._value_string_ext { ptr @_try_val_to_str_ext_init, i32 0, i32 93, ptr @vals_content_types, ptr @.str.718 }, align 8
@ei_wsp_oversized_uintvar = internal global %struct.expert_field zeroinitializer, align 4
@ett_header = internal global i32 0, align 4
@ei_wsp_header_invalid_value = internal global %struct.expert_field zeroinitializer, align 4
@ett_content_type_header = internal global i32 0, align 4
@.str.829 = private unnamed_addr constant [39 x i8] c"(Unknown content type identifier 0x%X)\00", align 1
@.str.871 = private unnamed_addr constant [17 x i8] c"Content type: %s\00", align 1
@.str.872 = private unnamed_addr constant [37 x i8] c"<no content type has been specified>\00", align 1

; Function Attrs: null_pointer_is_valid sspstrong uwtable
define internal i32 @wkh_content_type_header(ptr noundef %0, ptr noundef %1, i32 noundef %2, ptr noundef %3, i32 noundef %4, ptr noundef %5) #1 {
  %7 = alloca ptr, align 8
  %8 = alloca ptr, align 8
  %9 = alloca i32, align 4
  %10 = alloca ptr, align 8
  %11 = alloca i32, align 4
  %12 = alloca ptr, align 8
  %13 = alloca i8, align 1
  %14 = alloca ptr, align 8
  %15 = alloca ptr, align 8
  %16 = alloca i32, align 4
  %17 = alloca i8, align 1
  %18 = alloca i32, align 4
  %19 = alloca i32, align 4
  %20 = alloca i32, align 4
  %21 = alloca ptr, align 8
  %22 = alloca i32, align 4
  %23 = alloca i32, align 4
  %24 = alloca i32, align 4
  %25 = alloca i8, align 1
  %26 = alloca ptr, align 8
  %27 = alloca ptr, align 8
  %28 = alloca ptr, align 8
  store ptr %0, ptr %7, align 8
  store ptr %1, ptr %8, align 8
  store i32 %2, ptr %9, align 4
  store ptr %3, ptr %10, align 8
  store i32 %4, ptr %11, align 4
  store ptr %5, ptr %12, align 8
  call void @llvm.lifetime.start.p0(i64 1, ptr %13) #8
  store i8 0, ptr %13, align 1
  call void @llvm.lifetime.start.p0(i64 8, ptr %14) #8
  call void @llvm.lifetime.start.p0(i64 8, ptr %15) #8
  call void @llvm.lifetime.start.p0(i64 4, ptr %16) #8
  %29 = load i32, ptr %9, align 4
  %30 = add i32 %29, 1
  store i32 %30, ptr %16, align 4
  call void @llvm.lifetime.start.p0(i64 1, ptr %17) #8
  %31 = load ptr, ptr %8, align 8
  %32 = load i32, ptr %16, align 4
  %33 = call zeroext i8 @tvb_get_uint8(ptr noundef %31, i32 noundef %32)
  store i8 %33, ptr %17, align 1
  call void @llvm.lifetime.start.p0(i64 4, ptr %18) #8
  %34 = load i32, ptr %16, align 4
  store i32 %34, ptr %18, align 4
  call void @llvm.lifetime.start.p0(i64 4, ptr %19) #8
  call void @llvm.lifetime.start.p0(i64 4, ptr %20) #8
  call void @llvm.lifetime.start.p0(i64 8, ptr %21) #8
  store ptr null, ptr %21, align 8
  call void @llvm.lifetime.start.p0(i64 4, ptr %22) #8
  call void @llvm.lifetime.start.p0(i64 4, ptr %23) #8
  store i32 0, ptr %23, align 4
  call void @llvm.lifetime.start.p0(i64 4, ptr %24) #8
  call void @llvm.lifetime.start.p0(i64 1, ptr %25) #8
  call void @llvm.lifetime.start.p0(i64 8, ptr %26) #8
  store ptr null, ptr %26, align 8
  call void @llvm.lifetime.start.p0(i64 8, ptr %27) #8
  store ptr null, ptr %27, align 8
  call void @llvm.lifetime.start.p0(i64 8, ptr %28) #8
  %35 = call ptr @wmem_packet_scope()
  %36 = load ptr, ptr %12, align 8
  %37 = call noalias ptr (ptr, ptr, ...) @wmem_strdup_printf(ptr noundef %35, ptr noundef @.str.871, ptr noundef %36)
  store ptr %37, ptr %28, align 8
  %38 = load ptr, ptr %7, align 8
  %39 = load ptr, ptr %8, align 8
  %40 = load i32, ptr %9, align 4
  %41 = load i32, ptr %18, align 4
  %42 = load i32, ptr %9, align 4
  %43 = sub i32 %41, %42
  %44 = load i32, ptr @ett_content_type_header, align 4
  %45 = load ptr, ptr %28, align 8
  %46 = call ptr @proto_tree_add_subtree(ptr noundef %38, ptr noundef %39, i32 noundef %40, i32 noundef %43, i32 noundef %44, ptr noundef %15, ptr noundef %45)
  store ptr %46, ptr %14, align 8
  %47 = load ptr, ptr %14, align 8
  %48 = load i32, ptr @hf_hdr_name_value, align 4
  %49 = load ptr, ptr %8, align 8
  %50 = load i32, ptr %9, align 4
  %51 = call ptr @proto_tree_add_item(ptr noundef %47, i32 noundef %48, ptr noundef %49, i32 noundef %50, i32 noundef 1, i32 noundef 0)
  %52 = load i8, ptr %17, align 1
  %53 = zext i8 %52 to i32
  %54 = and i32 %53, 128
  %55 = icmp ne i32 %54, 0
  br i1 %55, label %56, label %69

56:                                               ; preds = %6
  %57 = load i32, ptr %18, align 4
  %58 = add i32 %57, 1
  store i32 %58, ptr %18, align 4
  %59 = load ptr, ptr %14, align 8
  %60 = load i32, ptr %11, align 4
  %61 = load ptr, ptr %8, align 8
  %62 = load i32, ptr %16, align 4
  %63 = load i8, ptr %17, align 1
  %64 = zext i8 %63 to i32
  %65 = and i32 %64, 127
  %66 = call ptr @val_to_str_ext(i32 noundef %65, ptr noundef @vals_content_types_ext, ptr noundef @.str.829)
  %67 = call ptr @proto_tree_add_string(ptr noundef %59, i32 noundef %60, ptr noundef %61, i32 noundef %62, i32 noundef 1, ptr noundef %66)
  %68 = load ptr, ptr %15, align 8
  call void @proto_item_set_len(ptr noundef %68, i32 noundef 2)
  store i8 1, ptr %13, align 1
  br label %273

69:                                               ; preds = %6
  %70 = load i8, ptr %17, align 1
  %71 = zext i8 %70 to i32
  %72 = icmp eq i32 %71, 0
  br i1 %72, label %77, label %73

73:                                               ; preds = %69
  %74 = load i8, ptr %17, align 1
  %75 = zext i8 %74 to i32
  %76 = icmp sge i32 %75, 32
  br i1 %76, label %77, label %107

77:                                               ; preds = %73, %69
  %78 = call ptr @wmem_packet_scope()
  %79 = load ptr, ptr %8, align 8
  %80 = load i32, ptr %16, align 4
  %81 = call ptr @tvb_get_stringz_enc(ptr noundef %78, ptr noundef %79, i32 noundef %80, ptr noundef %19, i32 noundef 0)
  store ptr %81, ptr %21, align 8
  %82 = load i32, ptr %16, align 4
  %83 = load i32, ptr %19, align 4
  %84 = add i32 %82, %83
  store i32 %84, ptr %18, align 4
  %85 = load ptr, ptr %21, align 8
  %86 = load i8, ptr %85, align 1
  %87 = icmp ne i8 %86, 0
  br i1 %87, label %88, label %99

88:                                               ; preds = %77
  %89 = load ptr, ptr %14, align 8
  %90 = load i32, ptr %11, align 4
  %91 = load ptr, ptr %8, align 8
  %92 = load i32, ptr %16, align 4
  %93 = load i32, ptr %19, align 4
  %94 = load ptr, ptr %21, align 8
  %95 = call ptr @proto_tree_add_string(ptr noundef %89, i32 noundef %90, ptr noundef %91, i32 noundef %92, i32 noundef %93, ptr noundef %94)
  %96 = load ptr, ptr %15, align 8
  %97 = load i32, ptr %19, align 4
  %98 = add i32 %97, 1
  call void @proto_item_set_len(ptr noundef %96, i32 noundef %98)
  br label %106

99:                                               ; preds = %77
  %100 = load ptr, ptr %14, align 8
  %101 = load i32, ptr %11, align 4
  %102 = load ptr, ptr %8, align 8
  %103 = load i32, ptr %16, align 4
  %104 = call ptr @proto_tree_add_string(ptr noundef %100, i32 noundef %101, ptr noundef %102, i32 noundef %103, i32 noundef 0, ptr noundef @.str.872)
  %105 = load ptr, ptr %15, align 8
  call void @proto_item_set_len(ptr noundef %105, i32 noundef 2)
  br label %106

106:                                              ; preds = %99, %88
  store i8 1, ptr %13, align 1
  br label %272

107:                                              ; preds = %73
  %108 = load i8, ptr %17, align 1
  %109 = zext i8 %108 to i32
  %110 = icmp eq i32 %109, 31
  br i1 %110, label %111, label %119

111:                                              ; preds = %107
  %112 = load ptr, ptr %8, align 8
  %113 = load i32, ptr %16, align 4
  %114 = add i32 %113, 1
  %115 = load ptr, ptr %10, align 8
  %116 = call i32 @tvb_get_uintvar(ptr noundef %112, i32 noundef %114, ptr noundef %20, ptr noundef %115, ptr noundef @ei_wsp_oversized_uintvar)
  store i32 %116, ptr %19, align 4
  %117 = load i32, ptr %20, align 4
  %118 = add i32 %117, 1
  store i32 %118, ptr %20, align 4
  br label %124

119:                                              ; preds = %107
  %120 = load ptr, ptr %8, align 8
  %121 = load i32, ptr %18, align 4
  %122 = call zeroext i8 @tvb_get_uint8(ptr noundef %120, i32 noundef %121)
  %123 = zext i8 %122 to i32
  store i32 %123, ptr %19, align 4
  store i32 1, ptr %20, align 4
  br label %124

124:                                              ; preds = %119, %111
  %125 = load i32, ptr %20, align 4
  %126 = load i32, ptr %19, align 4
  %127 = add i32 %125, %126
  %128 = load i32, ptr %18, align 4
  %129 = add i32 %128, %127
  store i32 %129, ptr %18, align 4
  %130 = load i32, ptr %16, align 4
  %131 = load i32, ptr %20, align 4
  %132 = add i32 %130, %131
  store i32 %132, ptr %22, align 4
  %133 = load ptr, ptr %8, align 8
  %134 = load i32, ptr %22, align 4
  %135 = call zeroext i8 @tvb_get_uint8(ptr noundef %133, i32 noundef %134)
  store i8 %135, ptr %25, align 1
  %136 = load i8, ptr %25, align 1
  %137 = zext i8 %136 to i32
  %138 = icmp eq i32 %137, 0
  br i1 %138, label %147, label %139

139:                                              ; preds = %124
  %140 = load i8, ptr %25, align 1
  %141 = zext i8 %140 to i32
  %142 = icmp sge i32 %141, 32
  br i1 %142, label %143, label %164

143:                                              ; preds = %139
  %144 = load i8, ptr %25, align 1
  %145 = zext i8 %144 to i32
  %146 = icmp sle i32 %145, 127
  br i1 %146, label %147, label %164

147:                                              ; preds = %143, %124
  %148 = call ptr @wmem_packet_scope()
  %149 = load ptr, ptr %8, align 8
  %150 = load i32, ptr %22, align 4
  %151 = call ptr @tvb_get_stringz_enc(ptr noundef %148, ptr noundef %149, i32 noundef %150, ptr noundef %24, i32 noundef 0)
  store ptr %151, ptr %21, align 8
  %152 = load i32, ptr %24, align 4
  %153 = load i32, ptr %22, align 4
  %154 = add i32 %153, %152
  store i32 %154, ptr %22, align 4
  %155 = load ptr, ptr %14, align 8
  %156 = load i32, ptr %11, align 4
  %157 = load ptr, ptr %8, align 8
  %158 = load i32, ptr %9, align 4
  %159 = load i32, ptr %18, align 4
  %160 = load i32, ptr %9, align 4
  %161 = sub i32 %159, %160
  %162 = load ptr, ptr %21, align 8
  %163 = call ptr @proto_tree_add_string(ptr noundef %155, i32 noundef %156, ptr noundef %157, i32 noundef %158, i32 noundef %161, ptr noundef %162)
  store ptr %163, ptr %26, align 8
  br label %245

164:                                              ; preds = %143, %139
  %165 = load i8, ptr %25, align 1
  %166 = zext i8 %165 to i32
  %167 = and i32 %166, 128
  %168 = icmp ne i32 %167, 0
  br i1 %168, label %173, label %169

169:                                              ; preds = %164
  %170 = load i8, ptr %25, align 1
  %171 = zext i8 %170 to i32
  %172 = icmp sle i32 %171, 30
  br i1 %172, label %173, label %243

173:                                              ; preds = %169, %164
  %174 = load ptr, ptr %8, align 8
  %175 = load i32, ptr %22, align 4
  %176 = call zeroext i8 @tvb_get_uint8(ptr noundef %174, i32 noundef %175)
  %177 = zext i8 %176 to i32
  store i32 %177, ptr %24, align 4
  store i8 1, ptr %13, align 1
  %178 = load i32, ptr %24, align 4
  %179 = and i32 %178, 128
  %180 = icmp ne i32 %179, 0
  br i1 %180, label %181, label %184

181:                                              ; preds = %173
  %182 = load i32, ptr %24, align 4
  %183 = and i32 %182, 127
  store i32 %183, ptr %23, align 4
  store i32 0, ptr %24, align 4
  br label %223

184:                                              ; preds = %173
  %185 = load i32, ptr %24, align 4
  %186 = icmp eq i32 %185, 1
  br i1 %186, label %187, label %193

187:                                              ; preds = %184
  %188 = load ptr, ptr %8, align 8
  %189 = load i32, ptr %22, align 4
  %190 = add i32 %189, 1
  %191 = call zeroext i8 @tvb_get_uint8(ptr noundef %188, i32 noundef %190)
  %192 = zext i8 %191 to i32
  store i32 %192, ptr %23, align 4
  br label %222

193:                                              ; preds = %184
  %194 = load i32, ptr %24, align 4
  %195 = icmp eq i32 %194, 2
  br i1 %195, label %196, label %202

196:                                              ; preds = %193
  %197 = load ptr, ptr %8, align 8
  %198 = load i32, ptr %22, align 4
  %199 = add i32 %198, 1
  %200 = call zeroext i16 @tvb_get_ntohs(ptr noundef %197, i32 noundef %199)
  %201 = zext i16 %200 to i32
  store i32 %201, ptr %23, align 4
  br label %221

202:                                              ; preds = %193
  %203 = load i32, ptr %24, align 4
  %204 = icmp eq i32 %203, 3
  br i1 %204, label %205, label %210

205:                                              ; preds = %202
  %206 = load ptr, ptr %8, align 8
  %207 = load i32, ptr %22, align 4
  %208 = add i32 %207, 1
  %209 = call i32 @tvb_get_ntoh24(ptr noundef %206, i32 noundef %208)
  store i32 %209, ptr %23, align 4
  br label %220

210:                                              ; preds = %202
  %211 = load i32, ptr %24, align 4
  %212 = icmp eq i32 %211, 4
  br i1 %212, label %213, label %218

213:                                              ; preds = %210
  %214 = load ptr, ptr %8, align 8
  %215 = load i32, ptr %22, align 4
  %216 = add i32 %215, 1
  %217 = call i32 @tvb_get_ntohl(ptr noundef %214, i32 noundef %216)
  store i32 %217, ptr %23, align 4
  br label %219

218:                                              ; preds = %210
  store i8 0, ptr %13, align 1
  br label %219

219:                                              ; preds = %218, %213
  br label %220

220:                                              ; preds = %219, %205
  br label %221

221:                                              ; preds = %220, %196
  br label %222

222:                                              ; preds = %221, %187
  br label %223

223:                                              ; preds = %222, %181
  %224 = load i32, ptr %24, align 4
  %225 = add i32 %224, 1
  store i32 %225, ptr %24, align 4
  %226 = load i8, ptr %13, align 1, !range !6, !noundef !7
  %227 = trunc i8 %226 to i1
  br i1 %227, label %228, label %239

228:                                              ; preds = %223
  %229 = load ptr, ptr %14, align 8
  %230 = load i32, ptr %11, align 4
  %231 = load ptr, ptr %8, align 8
  %232 = load i32, ptr %9, align 4
  %233 = load i32, ptr %18, align 4
  %234 = load i32, ptr %9, align 4
  %235 = sub i32 %233, %234
  %236 = load i32, ptr %23, align 4
  %237 = call ptr @val_to_str_ext(i32 noundef %236, ptr noundef @vals_content_types_ext, ptr noundef @.str.829)
  %238 = call ptr @proto_tree_add_string(ptr noundef %229, i32 noundef %230, ptr noundef %231, i32 noundef %232, i32 noundef %235, ptr noundef %237)
  store ptr %238, ptr %26, align 8
  br label %239

239:                                              ; preds = %228, %223
  %240 = load i32, ptr %24, align 4
  %241 = load i32, ptr %22, align 4
  %242 = add i32 %241, %240
  store i32 %242, ptr %22, align 4
  br label %244

243:                                              ; preds = %169
  store i8 0, ptr %13, align 1
  br label %244

244:                                              ; preds = %243, %239
  br label %245

245:                                              ; preds = %244, %147
  %246 = load i8, ptr %13, align 1, !range !6, !noundef !7
  %247 = trunc i8 %246 to i1
  br i1 %247, label %248, label %271

248:                                              ; preds = %245
  %249 = load i32, ptr %22, align 4
  %250 = load i32, ptr %18, align 4
  %251 = icmp ult i32 %249, %250
  br i1 %251, label %252, label %271

252:                                              ; preds = %248
  %253 = load ptr, ptr %26, align 8
  %254 = load i32, ptr @ett_header, align 4
  %255 = call ptr @proto_item_add_subtree(ptr noundef %253, i32 noundef %254)
  store ptr %255, ptr %27, align 8
  br label %256

256:                                              ; preds = %260, %252
  %257 = load i32, ptr %22, align 4
  %258 = load i32, ptr %18, align 4
  %259 = icmp ult i32 %257, %258
  br i1 %259, label %260, label %270

260:                                              ; preds = %256
  %261 = load ptr, ptr %27, align 8
  %262 = load ptr, ptr %10, align 8
  %263 = load ptr, ptr %26, align 8
  %264 = load ptr, ptr %8, align 8
  %265 = load i32, ptr %22, align 4
  %266 = load i32, ptr %18, align 4
  %267 = load i32, ptr %22, align 4
  %268 = sub i32 %266, %267
  %269 = call i32 @parameter(ptr noundef %261, ptr noundef %262, ptr noundef %263, ptr noundef %264, i32 noundef %265, i32 noundef %268)
  store i32 %269, ptr %22, align 4
  br label %256, !llvm.loop !23

270:                                              ; preds = %256
  br label %271

271:                                              ; preds = %270, %248, %245
  br label %272

272:                                              ; preds = %271, %106
  br label %273

273:                                              ; preds = %272, %56
  %274 = load i8, ptr %13, align 1, !range !6, !noundef !7
  %275 = trunc i8 %274 to i1
  br i1 %275, label %280, label %276

276:                                              ; preds = %273
  %277 = load ptr, ptr %10, align 8
  %278 = load ptr, ptr %15, align 8
  %279 = call ptr @expert_add_info(ptr noundef %277, ptr noundef %278, ptr noundef @ei_wsp_header_invalid_value)
  br label %280

280:                                              ; preds = %276, %273
  %281 = load i32, ptr %18, align 4
  call void @llvm.lifetime.end.p0(i64 8, ptr %28) #8
  call void @llvm.lifetime.end.p0(i64 8, ptr %27) #8
  call void @llvm.lifetime.end.p0(i64 8, ptr %26) #8
  call void @llvm.lifetime.end.p0(i64 1, ptr %25) #8
  call void @llvm.lifetime.end.p0(i64 4, ptr %24) #8
  call void @llvm.lifetime.end.p0(i64 4, ptr %23) #8
  call void @llvm.lifetime.end.p0(i64 4, ptr %22) #8
  call void @llvm.lifetime.end.p0(i64 8, ptr %21) #8
  call void @llvm.lifetime.end.p0(i64 4, ptr %20) #8
  call void @llvm.lifetime.end.p0(i64 4, ptr %19) #8
  call void @llvm.lifetime.end.p0(i64 4, ptr %18) #8
  call void @llvm.lifetime.end.p0(i64 1, ptr %17) #8
  call void @llvm.lifetime.end.p0(i64 4, ptr %16) #8
  call void @llvm.lifetime.end.p0(i64 8, ptr %15) #8
  call void @llvm.lifetime.end.p0(i64 8, ptr %14) #8
  call void @llvm.lifetime.end.p0(i64 1, ptr %13) #8
  ret i32 %281
}