; Function Attrs: null_pointer_is_valid sspstrong uwtable
define internal fastcc i32 @wkh_content_type_header(ptr noundef %0, ptr noundef %1, i32 noundef %2, ptr noundef %3, i32 noundef %4, ptr noundef %5) unnamed_addr #1 {
  %7 = alloca ptr, align 8
  %8 = alloca i32, align 4
  %9 = alloca i32, align 4
  %10 = alloca i32, align 4
  call void @llvm.lifetime.start.p0(i64 8, ptr nonnull %7) #5
  %11 = add i32 %2, 1
  %12 = tail call zeroext i8 @tvb_get_uint8(ptr noundef %1, i32 noundef %11)
  call void @llvm.lifetime.start.p0(i64 4, ptr nonnull %8) #5
  call void @llvm.lifetime.start.p0(i64 4, ptr nonnull %9) #5
  call void @llvm.lifetime.start.p0(i64 4, ptr nonnull %10) #5
  %13 = tail call ptr @wmem_packet_scope()
  %14 = tail call noalias ptr (ptr, ptr, ...) @wmem_strdup_printf(ptr noundef %13, ptr noundef nonnull @.str.871, ptr noundef %5)
  %15 = load i32, ptr @ett_content_type_header, align 4
  %16 = call ptr @proto_tree_add_subtree(ptr noundef %0, ptr noundef %1, i32 noundef %2, i32 noundef 1, i32 noundef %15, ptr noundef nonnull %7, ptr noundef %14)
  %17 = load i32, ptr @hf_hdr_name_value, align 4
  %18 = call ptr @proto_tree_add_item(ptr noundef %16, i32 noundef %17, ptr noundef %1, i32 noundef %2, i32 noundef 1, i32 noundef 0)
  %.not = icmp sgt i8 %12, -1
  br i1 %.not, label %26, label %19

19:                                               ; preds = %6
  %20 = add i32 %2, 2
  %21 = and i8 %12, 127
  %22 = zext nneg i8 %21 to i32
  %23 = call ptr @val_to_str_ext(i32 noundef %22, ptr noundef nonnull @vals_content_types_ext, ptr noundef nonnull @.str.829)
  %24 = call ptr @proto_tree_add_string(ptr noundef %16, i32 noundef %4, ptr noundef %1, i32 noundef %11, i32 noundef 1, ptr noundef %23)
  %25 = load ptr, ptr %7, align 8
  call void @proto_item_set_len(ptr noundef %25, i32 noundef 2)
  br label %.thread134

26:                                               ; preds = %6
  %27 = add nsw i8 %12, -32
  %or.cond = icmp ult i8 %27, -31
  br i1 %or.cond, label %28, label %42

28:                                               ; preds = %26
  %29 = call ptr @wmem_packet_scope()
  %30 = call ptr @tvb_get_stringz_enc(ptr noundef %29, ptr noundef %1, i32 noundef %11, ptr noundef nonnull %8, i32 noundef 0)
  %31 = load i32, ptr %8, align 4
  %32 = add i32 %31, %11
  %33 = load i8, ptr %30, align 1
  %.not115 = icmp eq i8 %33, 0
  br i1 %.not115, label %39, label %34

34:                                               ; preds = %28
  %35 = call ptr @proto_tree_add_string(ptr noundef %16, i32 noundef %4, ptr noundef %1, i32 noundef %11, i32 noundef %31, ptr noundef %30)
  %36 = load ptr, ptr %7, align 8
  %37 = load i32, ptr %8, align 4
  %38 = add i32 %37, 1
  call void @proto_item_set_len(ptr noundef %36, i32 noundef %38)
  br label %.thread134

39:                                               ; preds = %28
  %40 = call ptr @proto_tree_add_string(ptr noundef %16, i32 noundef %4, ptr noundef %1, i32 noundef %11, i32 noundef 0, ptr noundef nonnull @.str.872)
  %41 = load ptr, ptr %7, align 8
  call void @proto_item_set_len(ptr noundef %41, i32 noundef 2)
  br label %.thread134

42:                                               ; preds = %26
  %43 = icmp eq i8 %12, 31
  br i1 %43, label %44, label %49

44:                                               ; preds = %42
  %45 = add i32 %2, 2
  %46 = call i32 @tvb_get_uintvar(ptr noundef %1, i32 noundef %45, ptr noundef nonnull %9, ptr noundef %3, ptr noundef nonnull @ei_wsp_oversized_uintvar)
  %47 = load i32, ptr %9, align 4
  %48 = add i32 %47, 1
  br label %52

49:                                               ; preds = %42
  %50 = call zeroext i8 @tvb_get_uint8(ptr noundef %1, i32 noundef %11)
  %51 = zext i8 %50 to i32
  br label %52

52:                                               ; preds = %49, %44
  %.sink = phi i32 [ %46, %44 ], [ %51, %49 ]
  %storemerge = phi i32 [ %48, %44 ], [ 1, %49 ]
  store i32 %storemerge, ptr %9, align 4
  %53 = add i32 %storemerge, %11
  %54 = add i32 %53, %.sink
  %55 = call zeroext i8 @tvb_get_uint8(ptr noundef %1, i32 noundef %53)
  %56 = icmp eq i8 %55, 0
  %or.cond5 = icmp sgt i8 %55, 31
  %or.cond116 = or i1 %56, %or.cond5
  br i1 %or.cond116, label %57, label %62

57:                                               ; preds = %52
  %58 = call ptr @wmem_packet_scope()
  %59 = call ptr @tvb_get_stringz_enc(ptr noundef %58, ptr noundef %1, i32 noundef %53, ptr noundef nonnull %10, i32 noundef 0)
  %60 = sub i32 %54, %2
  %61 = call ptr @proto_tree_add_string(ptr noundef %16, i32 noundef %4, ptr noundef %1, i32 noundef %2, i32 noundef %60, ptr noundef %59)
  br label %.thread124

62:                                               ; preds = %52
  %or.cond8.not = icmp eq i8 %55, 31
  br i1 %or.cond8.not, label %.thread124, label %63

63:                                               ; preds = %62
  %64 = call zeroext i8 @tvb_get_uint8(ptr noundef %1, i32 noundef %53)
  %65 = zext i8 %64 to i32
  %.not114 = icmp sgt i8 %64, -1
  br i1 %.not114, label %68, label %66

66:                                               ; preds = %63
  %67 = and i32 %65, 127
  br label %84

68:                                               ; preds = %63
  switch i8 %64, label %.thread129 [
    i8 1, label %69
    i8 2, label %73
    i8 3, label %77
    i8 4, label %80
  ]

69:                                               ; preds = %68
  %70 = add i32 %53, 1
  %71 = call zeroext i8 @tvb_get_uint8(ptr noundef %1, i32 noundef %70)
  %72 = zext i8 %71 to i32
  br label %84

73:                                               ; preds = %68
  %74 = add i32 %53, 1
  %75 = call zeroext i16 @tvb_get_ntohs(ptr noundef %1, i32 noundef %74)
  %76 = zext i16 %75 to i32
  br label %84

77:                                               ; preds = %68
  %78 = add i32 %53, 1
  %79 = call i32 @tvb_get_ntoh24(ptr noundef %1, i32 noundef %78)
  br label %84

80:                                               ; preds = %68
  %81 = add i32 %53, 1
  %82 = call i32 @tvb_get_ntohl(ptr noundef %1, i32 noundef %81)
  br label %84

.thread129:                                       ; preds = %68
  %83 = add nuw nsw i32 %65, 1
  store i32 %83, ptr %10, align 4
  br label %.thread124

84:                                               ; preds = %80, %77, %73, %69, %66
  %85 = phi i32 [ 5, %80 ], [ 4, %77 ], [ 3, %73 ], [ 2, %69 ], [ 1, %66 ]
  %.0106.ph = phi i32 [ %82, %80 ], [ %79, %77 ], [ %76, %73 ], [ %72, %69 ], [ %67, %66 ]
  %86 = sub i32 %54, %2
  %87 = call ptr @val_to_str_ext(i32 noundef %.0106.ph, ptr noundef nonnull @vals_content_types_ext, ptr noundef nonnull @.str.829)
  %88 = call ptr @proto_tree_add_string(ptr noundef %16, i32 noundef %4, ptr noundef %1, i32 noundef %2, i32 noundef %86, ptr noundef %87)
  %89 = add i32 %85, %53
  %90 = icmp ult i32 %89, %54
  br i1 %90, label %91, label %.thread134

91:                                               ; preds = %84
  %92 = load i32, ptr @ett_header, align 4
  %93 = call ptr @proto_item_add_subtree(ptr noundef %88, i32 noundef %92)
  br label %94

94:                                               ; preds = %91, %94
  %.1108138 = phi i32 [ %89, %91 ], [ %96, %94 ]
  %95 = sub nuw i32 %54, %.1108138
  %96 = call fastcc i32 @parameter(ptr noundef %93, ptr noundef %3, ptr noundef %88, ptr noundef %1, i32 noundef %.1108138, i32 noundef %95)
  %97 = icmp ult i32 %96, %54
  br i1 %97, label %94, label %.thread134, !llvm.loop !21

.thread124:                                       ; preds = %62, %57, %.thread129
  %98 = load ptr, ptr %7, align 8
  %99 = call ptr @expert_add_info(ptr noundef %3, ptr noundef %98, ptr noundef nonnull @ei_wsp_header_invalid_value)
  br label %.thread134

.thread134:                                       ; preds = %94, %34, %39, %84, %19, %.thread124
  %.0105137 = phi i32 [ %54, %.thread124 ], [ %32, %34 ], [ %32, %39 ], [ %54, %84 ], [ %20, %19 ], [ %54, %94 ]
  call void @llvm.lifetime.end.p0(i64 4, ptr nonnull %10) #5
  call void @llvm.lifetime.end.p0(i64 4, ptr nonnull %9) #5
  call void @llvm.lifetime.end.p0(i64 4, ptr nonnull %8) #5
  call void @llvm.lifetime.end.p0(i64 8, ptr nonnull %7) #5
  ret i32 %.0105137
}